(dp0
L38242056L
(imodel.producer
Producer
p1
(dp2
S'_Producer__age'
p3
S'1'
p4
sS'_Producer__sex'
p5
g4
sS'_Producer__id'
p6
L38242056L
sS'_Producer__name'
p7
g4
sbsL37305288L
(imodel.producer
Producer
p8
(dp9
g3
S'1'
p10
sg5
g10
sg6
L37305288L
sg7
S'Name'
p11
sbsL36908424L
(imodel.producer
Producer
p12
(dp13
g3
S'1'
p14
sg5
g14
sg6
L36908424L
sg7
g14
sbs.